target datalayout = "e-m:e-p270:32:32-p271:32:32-p272:64:64-i64:64-i128:128-f80:128-n8:16:32:64-S128"
target triple = "x86_64-pc-linux-gnu"

%struct._zend_executor_globals = type { %struct._zval_struct, %struct._zval_struct, [32 x ptr], ptr, ptr, %struct._zend_array, %struct._zend_array, ptr, i32, i8, %struct._zval_struct, i32, ptr, ptr, ptr, ptr, ptr, ptr, i64, ptr, ptr, i32, ptr, i32, i64, i32, i32, i32, i8, i8, %struct.zend_atomic_bool_s, %struct.zend_atomic_bool_s, ptr, i64, ptr, ptr, %struct._zend_array, %struct._zend_array, i32, i8, %struct._zval_struct, %struct._zval_struct, %struct._zend_stack, %struct._zend_stack, %struct._zend_stack, ptr, i32, i32, i64, ptr, ptr, ptr, %struct._zend_objects_store, %struct._zend_lazy_objects_store, ptr, ptr, ptr, [3 x %struct._zend_op], ptr, i8, i8, i64, i32, i32, ptr, [16 x %struct._HashTableIterator], ptr, %union._zend_function, %struct._zend_op, %struct._zend_array, i64, %struct.zend_get_gc_buffer, ptr, ptr, ptr, i64, i8, i32, ptr, ptr, i64, %struct._zend_call_stack, i64, i64, %struct._zend_strtod_state, [6 x ptr] }
%struct.zend_atomic_bool_s = type { i8 }
%struct._zval_struct = type { %union._zend_value, %union.anon, %union.anon.2 }
%union._zend_value = type { i64 }
%union.anon = type { i32 }
%union.anon.2 = type { i32 }
%struct._zend_stack = type { i32, i32, i32, ptr }
%struct._zend_objects_store = type { ptr, i32, i32, i32 }
%struct._zend_lazy_objects_store = type { %struct._zend_array }
%struct._HashTableIterator = type { ptr, i32, i32 }
%union._zend_function = type { %struct._zend_op_array }
%struct._zend_op_array = type { i8, [3 x i8], i32, ptr, ptr, ptr, i32, i32, ptr, ptr, ptr, ptr, i32, ptr, i32, i32, i32, ptr, ptr, ptr, ptr, ptr, i32, i32, ptr, ptr, ptr, i32, i32, i32, i32, ptr, ptr, [6 x ptr] }
%struct._zend_op = type { ptr, %union._znode_op, %union._znode_op, %union._znode_op, i32, i32, i8, i8, i8, i8 }
%union._znode_op = type { i32 }
%struct._zend_array = type { %struct._zend_refcounted_h, %union.anon.4, i32, %union.anon.6, i32, i32, i32, i32, i64, ptr }
%struct._zend_refcounted_h = type { i32, %union.anon.3 }
%union.anon.3 = type { i32 }
%union.anon.4 = type { i32 }
%union.anon.6 = type { ptr }
%struct.zend_get_gc_buffer = type { ptr, ptr, ptr }
%struct._zend_call_stack = type { ptr, i64 }
%struct._zend_strtod_state = type { [8 x ptr], ptr, ptr }
%struct._zend_string = type { %struct._zend_refcounted_h, i64, i64, [1 x i8] }

@executor_globals = external global %struct._zend_executor_globals, align 8

; Function Attrs: alwaysinline nounwind uwtable
define internal ptr @zend_get_special_const(ptr noundef %0, i64 noundef %1) #2 {
  %3 = alloca ptr, align 8
  %4 = alloca ptr, align 8
  %5 = alloca i64, align 8
  store ptr %0, ptr %4, align 8, !tbaa !56
  store i64 %1, ptr %5, align 8, !tbaa !57
  %6 = load i64, ptr %5, align 8, !tbaa !57
  %7 = icmp eq i64 %6, 4
  br i1 %7, label %11, label %8

8:                                                ; preds = %2
  %9 = load i64, ptr %5, align 8, !tbaa !57
  %10 = icmp eq i64 %9, 5
  br i1 %10, label %11, label %15

11:                                               ; preds = %8, %2
  %12 = load ptr, ptr %4, align 8, !tbaa !56
  %13 = load i64, ptr %5, align 8, !tbaa !57
  %14 = call ptr @_zend_get_special_const(ptr noundef %12, i64 noundef %13)
  store ptr %14, ptr %3, align 8
  br label %16

15:                                               ; preds = %8
  store ptr null, ptr %3, align 8
  br label %16

16:                                               ; preds = %15, %11
  %17 = load ptr, ptr %3, align 8
  ret ptr %17
}

; Function Attrs: alwaysinline nounwind uwtable
define internal ptr @zend_hash_find_ptr(ptr noundef %0, ptr noundef %1) #2 {
  %3 = alloca ptr, align 8
  %4 = alloca ptr, align 8
  %5 = alloca ptr, align 8
  %6 = alloca ptr, align 8
  %7 = alloca i32, align 4
  store ptr %0, ptr %4, align 8, !tbaa !55
  store ptr %1, ptr %5, align 8, !tbaa !17
  call void @llvm.lifetime.start.p0(i64 8, ptr %6) #12
  %8 = load ptr, ptr %4, align 8, !tbaa !55
  %9 = load ptr, ptr %5, align 8, !tbaa !17
  %10 = call ptr @zend_hash_find(ptr noundef %8, ptr noundef %9)
  store ptr %10, ptr %6, align 8, !tbaa !4
  %11 = load ptr, ptr %6, align 8, !tbaa !4
  %12 = icmp ne ptr %11, null
  br i1 %12, label %13, label %21

13:                                               ; preds = %2
  %14 = load ptr, ptr %6, align 8, !tbaa !4
  %15 = getelementptr inbounds nuw %struct._zval_struct, ptr %14, i32 0, i32 0
  %16 = load ptr, ptr %15, align 8, !tbaa !9
  %17 = icmp ne ptr %16, null
  call void @llvm.assume(i1 %17)
  %18 = load ptr, ptr %6, align 8, !tbaa !4
  %19 = getelementptr inbounds nuw %struct._zval_struct, ptr %18, i32 0, i32 0
  %20 = load ptr, ptr %19, align 8, !tbaa !9
  store ptr %20, ptr %3, align 8
  store i32 1, ptr %7, align 4
  br label %22

21:                                               ; preds = %2
  store ptr null, ptr %3, align 8
  store i32 1, ptr %7, align 4
  br label %22

22:                                               ; preds = %21, %13
  call void @llvm.lifetime.end.p0(i64 8, ptr %6) #12
  %23 = load ptr, ptr %3, align 8
  ret ptr %23
}

; Function Attrs: nounwind uwtable
define dso_local ptr @zend_get_constant_ptr(ptr noundef %0) #0 {
  %2 = alloca ptr, align 8
  %3 = alloca ptr, align 8
  %4 = alloca ptr, align 8
  %5 = alloca i32, align 4
  store ptr %0, ptr %3, align 8, !tbaa !17
  call void @llvm.lifetime.start.p0(i64 8, ptr %4) #12
  %6 = load ptr, ptr getelementptr inbounds nuw (%struct._zend_executor_globals, ptr @executor_globals, i32 0, i32 14), align 8, !tbaa !24
  %7 = load ptr, ptr %3, align 8, !tbaa !17
  %8 = call ptr @zend_hash_find_ptr(ptr noundef %6, ptr noundef %7)
  store ptr %8, ptr %4, align 8, !tbaa !10
  %9 = load ptr, ptr %4, align 8, !tbaa !10
  %10 = icmp ne ptr %9, null
  br i1 %10, label %11, label %13

11:                                               ; preds = %1
  %12 = load ptr, ptr %4, align 8, !tbaa !10
  store ptr %12, ptr %2, align 8
  store i32 1, ptr %5, align 4
  br label %33

13:                                               ; preds = %1
  %14 = load ptr, ptr %3, align 8, !tbaa !17
  %15 = getelementptr inbounds nuw %struct._zend_string, ptr %14, i32 0, i32 3
  %16 = getelementptr inbounds [1 x i8], ptr %15, i64 0, i64 0
  %17 = load ptr, ptr %3, align 8, !tbaa !17
  %18 = getelementptr inbounds nuw %struct._zend_string, ptr %17, i32 0, i32 2
  %19 = load i64, ptr %18, align 8, !tbaa !58
  %20 = call ptr @zend_get_halt_offset_constant(ptr noundef %16, i64 noundef %19)
  store ptr %20, ptr %4, align 8, !tbaa !10
  %21 = load ptr, ptr %4, align 8, !tbaa !10
  %22 = icmp ne ptr %21, null
  br i1 %22, label %23, label %25

23:                                               ; preds = %13
  %24 = load ptr, ptr %4, align 8, !tbaa !10
  store ptr %24, ptr %2, align 8
  store i32 1, ptr %5, align 4
  br label %33

25:                                               ; preds = %13
  %26 = load ptr, ptr %3, align 8, !tbaa !17
  %27 = getelementptr inbounds nuw %struct._zend_string, ptr %26, i32 0, i32 3
  %28 = getelementptr inbounds [1 x i8], ptr %27, i64 0, i64 0
  %29 = load ptr, ptr %3, align 8, !tbaa !17
  %30 = getelementptr inbounds nuw %struct._zend_string, ptr %29, i32 0, i32 2
  %31 = load i64, ptr %30, align 8, !tbaa !58
  %32 = call ptr @zend_get_special_const(ptr noundef %28, i64 noundef %31)
  store ptr %32, ptr %2, align 8
  store i32 1, ptr %5, align 4
  br label %33

33:                                               ; preds = %25, %23, %11
  call void @llvm.lifetime.end.p0(i64 8, ptr %4) #12
  %34 = load ptr, ptr %2, align 8
  ret ptr %34
}